target datalayout = "e-m:e-p270:32:32-p271:32:32-p272:64:64-i64:64-i128:128-f80:128-n8:16:32:64-S128"
target triple = "x86_64-unknown-linux-gnu"

%struct.gsec_aes_gcm_aead_crypter = type { %struct.gsec_aead_crypter, i64, i64, ptr, ptr }
%struct.gsec_aead_crypter = type { ptr }

; Function Attrs: mustprogress uwtable
define internal void @_ZL33gsec_aes_gcm_aead_crypter_destroyP17gsec_aead_crypter(ptr noundef %crypter) #0 {
entry:
  %crypter.addr = alloca ptr, align 8
  %aes_gcm_crypter = alloca ptr, align 8
  store ptr %crypter, ptr %crypter.addr, align 8
  %0 = load ptr, ptr %crypter.addr, align 8
  store ptr %0, ptr %aes_gcm_crypter, align 8
  %1 = load ptr, ptr %aes_gcm_crypter, align 8
  %ctx = getelementptr inbounds %struct.gsec_aes_gcm_aead_crypter, ptr %1, i32 0, i32 3
  %2 = load ptr, ptr %ctx, align 8
  call void @EVP_CIPHER_CTX_free(ptr noundef %2)
  %3 = load ptr, ptr %aes_gcm_crypter, align 8
  %gsec_key = getelementptr inbounds %struct.gsec_aes_gcm_aead_crypter, ptr %3, i32 0, i32 4
  %4 = load ptr, ptr %gsec_key, align 8
  %isnull = icmp eq ptr %4, null
  br i1 %isnull, label %delete.end, label %delete.notnull

delete.notnull:                                   ; preds = %entry
  %vtable = load ptr, ptr %4, align 8
  %vfn = getelementptr inbounds ptr, ptr %vtable, i64 1
  %5 = load ptr, ptr %vfn, align 8
  call void %5(ptr noundef nonnull align 8 dereferenceable(8) %4) #12
  br label %delete.end

delete.end:                                       ; preds = %delete.notnull, %entry
  ret void
}