; Function Attrs: mustprogress uwtable
define internal void @_ZL33gsec_aes_gcm_aead_crypter_destroyP17gsec_aead_crypter(ptr nocapture noundef readonly %crypter) #0 {
entry:
  %ctx = getelementptr inbounds i8, ptr %crypter, i64 24
  %0 = load ptr, ptr %ctx, align 8
  tail call void @EVP_CIPHER_CTX_free(ptr noundef %0)
  %gsec_key = getelementptr inbounds i8, ptr %crypter, i64 32
  %1 = load ptr, ptr %gsec_key, align 8
  %isnull = icmp eq ptr %1, null
  br i1 %isnull, label %delete.end, label %delete.notnull

delete.notnull:                                   ; preds = %entry
  %vtable = load ptr, ptr %1, align 8
  %vfn = getelementptr inbounds i8, ptr %vtable, i64 8
  %2 = load ptr, ptr %vfn, align 8
  tail call void %2(ptr noundef nonnull align 8 dereferenceable(8) %1) #18
  br label %delete.end

delete.end:                                       ; preds = %delete.notnull, %entry
  ret void
}